target datalayout = "e-m:e-p270:32:32-p271:32:32-p272:64:64-i64:64-i128:128-f80:128-n8:16:32:64-S128"
target triple = "x86_64-pc-linux-gnu"

%struct.XLogCtlData = type { %struct.XLogCtlInsert, %struct.XLogwrtRqst, i64, %struct.FullTransactionId, i64, i64, i64, %struct.pg_atomic_uint64, i64, i64, %struct.pg_atomic_uint64, %struct.pg_atomic_uint64, %struct.pg_atomic_uint64, i64, ptr, ptr, i32, i32, i32, i32, i8, i8, i64, i64, %struct.CheckPoint, i64, i8 }
%struct.XLogCtlInsert = type { i8, i64, i64, [128 x i8], i64, i8, i32, i64, ptr }
%struct.XLogwrtRqst = type { i64, i64 }
%struct.FullTransactionId = type { i64 }
%struct.pg_atomic_uint64 = type { i64 }
%struct.CheckPoint = type { i64, i32, i32, i8, i32, %struct.FullTransactionId, i32, i32, i32, i32, i32, i32, i32, i64, i32, i32, i32 }
%struct.XLogReaderState = type { %struct.XLogReaderRoutine, i64, ptr, i64, i64, i64, i64, i64, i64, i64, i64, ptr, ptr, i64, i8, ptr, ptr, ptr, ptr, ptr, i32, %struct.WALSegmentContext, %struct.WALOpenSegment, i32, i64, i32, i64, i32, i64, i32, ptr, i32, ptr, i8, i8 }
%struct.XLogReaderRoutine = type { ptr, ptr, ptr }
%struct.WALSegmentContext = type { [1024 x i8], i32 }
%struct.WALOpenSegment = type { i32, i64, i32 }

@XLogCtl = internal global ptr null, align 8
@.str.14 = private unnamed_addr constant [7 x i8] c"xlog.c\00", align 1
@.str.197 = private unnamed_addr constant [97 x i8] c"could not record restart point at %X/%X because there are unresolved references to invalid pages\00", align 1
@__func__.RecoveryRestartPoint = private unnamed_addr constant [21 x i8] c"RecoveryRestartPoint\00", align 1

; Function Attrs: inlinehint nounwind uwtable
define internal i32 @tas(ptr noundef %0) #6 {
  %2 = alloca ptr, align 8
  %3 = alloca i8, align 1
  store ptr %0, ptr %2, align 8
  call void @llvm.lifetime.start.p0(i64 1, ptr %3) #16
  store i8 1, ptr %3, align 1
  %4 = load i8, ptr %3, align 1
  %5 = load ptr, ptr %2, align 8
  %6 = call i8 asm sideeffect "\09lock\09\09\09\0A\09xchgb\09$0,$1\09\0A", "=q,=*m,0,*m,~{memory},~{cc},~{dirflag},~{fpsr},~{flags}"(ptr elementtype(i8) %5, i8 %4, ptr elementtype(i8) %5) #16, !srcloc !18
  store i8 %6, ptr %3, align 1
  %7 = load i8, ptr %3, align 1
  %8 = zext i8 %7 to i32
  call void @llvm.lifetime.end.p0(i64 1, ptr %3) #16
  ret i32 %8
}

; Function Attrs: nounwind uwtable
define internal void @RecoveryRestartPoint(ptr noundef %0, ptr noundef %1) #0 {
  %3 = alloca ptr, align 8
  %4 = alloca ptr, align 8
  %5 = alloca i32, align 4
  store ptr %0, ptr %3, align 8
  store ptr %1, ptr %4, align 8
  %6 = call zeroext i1 @XLogHaveInvalidPages()
  br i1 %6, label %7, label %29

7:                                                ; preds = %2
  br label %8

8:                                                ; preds = %7
  br i1 false, label %9, label %11

9:                                                ; preds = %8
  %10 = call zeroext i1 @errstart_cold(i32 noundef 13, ptr noundef null) #17
  br i1 %10, label %13, label %27

11:                                               ; preds = %8
  %12 = call zeroext i1 @errstart(i32 noundef 13, ptr noundef null)
  br i1 %12, label %13, label %27

13:                                               ; preds = %11, %9
  br label %14

14:                                               ; preds = %13
  br label %15

15:                                               ; preds = %14
  br label %16

16:                                               ; preds = %15
  store i32 1, ptr %5, align 4
  %17 = load ptr, ptr %3, align 8
  %18 = getelementptr inbounds nuw %struct.CheckPoint, ptr %17, i32 0, i32 0
  %19 = load i64, ptr %18, align 8
  %20 = lshr i64 %19, 32
  %21 = trunc i64 %20 to i32
  %22 = load ptr, ptr %3, align 8
  %23 = getelementptr inbounds nuw %struct.CheckPoint, ptr %22, i32 0, i32 0
  %24 = load i64, ptr %23, align 8
  %25 = trunc i64 %24 to i32
  %26 = call i32 (ptr, ...) @errmsg_internal(ptr noundef @.str.197, i32 noundef %21, i32 noundef %25)
  call void @errfinish(ptr noundef @.str.14, i32 noundef 7585, ptr noundef @__func__.RecoveryRestartPoint)
  br label %27

27:                                               ; preds = %16, %11, %9
  br label %28

28:                                               ; preds = %27
  br label %56

29:                                               ; preds = %2
  %30 = load ptr, ptr @XLogCtl, align 8
  %31 = getelementptr inbounds nuw %struct.XLogCtlData, ptr %30, i32 0, i32 26
  %32 = call i32 @tas(ptr noundef %31)
  %33 = icmp ne i32 %32, 0
  br i1 %33, label %34, label %38

34:                                               ; preds = %29
  %35 = load ptr, ptr @XLogCtl, align 8
  %36 = getelementptr inbounds nuw %struct.XLogCtlData, ptr %35, i32 0, i32 26
  %37 = call i32 @s_lock(ptr noundef %36, ptr noundef @.str.14, i32 noundef 7593, ptr noundef @__func__.RecoveryRestartPoint)
  br label %39

38:                                               ; preds = %29
  br label %39

39:                                               ; preds = %38, %34
  %40 = load ptr, ptr %4, align 8
  %41 = getelementptr inbounds nuw %struct.XLogReaderState, ptr %40, i32 0, i32 3
  %42 = load i64, ptr %41, align 8
  %43 = load ptr, ptr @XLogCtl, align 8
  %44 = getelementptr inbounds nuw %struct.XLogCtlData, ptr %43, i32 0, i32 22
  store i64 %42, ptr %44, align 8
  %45 = load ptr, ptr %4, align 8
  %46 = getelementptr inbounds nuw %struct.XLogReaderState, ptr %45, i32 0, i32 4
  %47 = load i64, ptr %46, align 8
  %48 = load ptr, ptr @XLogCtl, align 8
  %49 = getelementptr inbounds nuw %struct.XLogCtlData, ptr %48, i32 0, i32 23
  store i64 %47, ptr %49, align 8
  %50 = load ptr, ptr @XLogCtl, align 8
  %51 = getelementptr inbounds nuw %struct.XLogCtlData, ptr %50, i32 0, i32 24
  %52 = load ptr, ptr %3, align 8
  call void @llvm.memcpy.p0.p0.i64(ptr align 8 %51, ptr align 8 %52, i64 88, i1 false)
  br label %53

53:                                               ; preds = %39
  call void asm sideeffect "", "~{memory},~{dirflag},~{fpsr},~{flags}"() #16, !srcloc !89
  %54 = load ptr, ptr @XLogCtl, align 8
  %55 = getelementptr inbounds nuw %struct.XLogCtlData, ptr %54, i32 0, i32 26
  store i8 0, ptr %55, align 8
  br label %56

56:                                               ; preds = %28, %53
  ret void
}