; Function Attrs: nounwind uwtable
define internal fastcc void @RecoveryRestartPoint(ptr noundef nonnull readonly captures(none) %0, ptr noundef readonly captures(none) %1) unnamed_addr #0 {
  %3 = tail call zeroext i1 @XLogHaveInvalidPages() #26
  br i1 %3, label %4, label %12

4:                                                ; preds = %2
  %5 = tail call zeroext i1 @errstart(i32 noundef 13, ptr noundef null) #26
  br i1 %5, label %6, label %31

6:                                                ; preds = %4
  %7 = load i64, ptr %0, align 8
  %8 = lshr i64 %7, 32
  %9 = trunc nuw i64 %8 to i32
  %10 = trunc i64 %7 to i32
  %11 = tail call i32 (ptr, ...) @errmsg_internal(ptr noundef nonnull @.str.197, i32 noundef %9, i32 noundef %10) #26
  tail call void @errfinish(ptr noundef nonnull @.str.14, i32 noundef 7585, ptr noundef nonnull @__func__.RecoveryRestartPoint) #26
  br label %31

12:                                               ; preds = %2
  %13 = load ptr, ptr @XLogCtl, align 8
  %14 = getelementptr inbounds nuw i8, ptr %13, i64 448
  %15 = tail call i8 asm sideeffect "\09lock\09\09\09\0A\09xchgb\09$0,$1\09\0A", "=q,=*m,0,*m,~{memory},~{cc},~{dirflag},~{fpsr},~{flags}"(ptr nonnull elementtype(i8) %14, i8 1, ptr nonnull elementtype(i8) %14) #26, !srcloc !10
  %.not = icmp eq i8 %15, 0
  br i1 %.not, label %20, label %16

16:                                               ; preds = %12
  %17 = load ptr, ptr @XLogCtl, align 8
  %18 = getelementptr inbounds nuw i8, ptr %17, i64 448
  %19 = tail call i32 @s_lock(ptr noundef nonnull %18, ptr noundef nonnull @.str.14, i32 noundef 7593, ptr noundef nonnull @__func__.RecoveryRestartPoint) #26
  br label %20

20:                                               ; preds = %12, %16
  %21 = getelementptr inbounds nuw i8, ptr %1, i64 40
  %22 = load i64, ptr %21, align 8
  %23 = load ptr, ptr @XLogCtl, align 8
  %24 = getelementptr inbounds nuw i8, ptr %23, i64 336
  store i64 %22, ptr %24, align 8
  %25 = getelementptr inbounds nuw i8, ptr %1, i64 48
  %26 = load i64, ptr %25, align 8
  %27 = getelementptr inbounds nuw i8, ptr %23, i64 344
  store i64 %26, ptr %27, align 8
  %28 = getelementptr inbounds nuw i8, ptr %23, i64 352
  tail call void @llvm.memcpy.p0.p0.i64(ptr noundef nonnull align 8 dereferenceable(88) %28, ptr noundef nonnull align 8 dereferenceable(88) %0, i64 88, i1 false)
  tail call void asm sideeffect "", "~{memory},~{dirflag},~{fpsr},~{flags}"() #26, !srcloc !91
  %29 = load ptr, ptr @XLogCtl, align 8
  %30 = getelementptr inbounds nuw i8, ptr %29, i64 448
  store i8 0, ptr %30, align 8
  br label %31

31:                                               ; preds = %6, %4, %20
  ret void
}